; ModuleID = '60/969.c'
source_filename = "60/969.c"
target datalayout = "e-m:e-p270:32:32-p271:32:32-p272:64:64-i64:64-f80:128-n8:16:32:64-S128"
target triple = "x86_64-pc-linux-gnu"

@.str = private unnamed_addr constant [3 x i8] c"%d\00", align 1
@.str.1 = private unnamed_addr constant [6 x i8] c"%d %d\00", align 1
@.str.2 = private unnamed_addr constant [7 x i8] c"%d %d\0A\00", align 1
@.str.3 = private unnamed_addr constant [6 x i8] c"empty\00", align 1

; Function Attrs: noinline nounwind uwtable
define dso_local i32 @main() #0 {
  %1 = alloca i32, align 4
  %2 = alloca i32, align 4
  %3 = alloca i32, align 4
  %4 = alloca i32, align 4
  %5 = alloca i32, align 4
  %6 = alloca [10000 x i32], align 16
  store i32 0, i32* %1, align 4
  %7 = call i32 (i8*, ...) @__isoc99_scanf(i8* getelementptr inbounds ([3 x i8], [3 x i8]* @.str, i64 0, i64 0), i32* %2)
  store i32 0, i32* %5, align 4
  store i32 1, i32* %3, align 4
  br label %8

8:                                                ; preds = %15, %0
  %9 = load i32, i32* %3, align 4
  %10 = icmp slt i32 %9, 10000
  br i1 %10, label %11, label %18

11:                                               ; preds = %8
  %12 = load i32, i32* %3, align 4
  %13 = sext i32 %12 to i64
  %14 = getelementptr inbounds [10000 x i32], [10000 x i32]* %6, i64 0, i64 %13
  store i32 1, i32* %14, align 4
  br label %15

15:                                               ; preds = %11
  %16 = load i32, i32* %3, align 4
  %17 = add nsw i32 %16, 1
  store i32 %17, i32* %3, align 4
  br label %8

18:                                               ; preds = %8
  store i32 3, i32* %3, align 4
  br label %19

19:                                               ; preds = %91, %18
  %20 = load i32, i32* %3, align 4
  %21 = load i32, i32* %2, align 4
  %22 = sub nsw i32 %21, 2
  %23 = icmp sle i32 %20, %22
  br i1 %23, label %24, label %94

24:                                               ; preds = %19
  store i32 2, i32* %4, align 4
  br label %25

25:                                               ; preds = %65, %24
  %26 = load i32, i32* %4, align 4
  %27 = load i32, i32* %3, align 4
  %28 = sub nsw i32 %27, 1
  %29 = icmp sle i32 %26, %28
  br i1 %29, label %30, label %68

30:                                               ; preds = %25
  %31 = load i32, i32* %3, align 4
  %32 = load i32, i32* %4, align 4
  %33 = srem i32 %31, %32
  %34 = icmp eq i32 %33, 0
  br i1 %34, label %35, label %39

35:                                               ; preds = %30
  %36 = load i32, i32* %3, align 4
  %37 = sext i32 %36 to i64
  %38 = getelementptr inbounds [10000 x i32], [10000 x i32]* %6, i64 0, i64 %37
  store i32 0, i32* %38, align 4
  br label %68

39:                                               ; preds = %30
  %40 = load i32, i32* %3, align 4
  %41 = add nsw i32 %40, 2
  %42 = load i32, i32* %4, align 4
  %43 = add nsw i32 %42, 2
  %44 = srem i32 %41, %43
  %45 = icmp eq i32 %44, 0
  br i1 %45, label %59, label %46

46:                                               ; preds = %39
  %47 = load i32, i32* %3, align 4
  %48 = add nsw i32 %47, 2
  %49 = load i32, i32* %4, align 4
  %50 = add nsw i32 %49, 1
  %51 = srem i32 %48, %50
  %52 = icmp eq i32 %51, 0
  br i1 %52, label %59, label %53

53:                                               ; preds = %46
  %54 = load i32, i32* %3, align 4
  %55 = add nsw i32 %54, 2
  %56 = load i32, i32* %4, align 4
  %57 = srem i32 %55, %56
  %58 = icmp eq i32 %57, 0
  br i1 %58, label %59, label %63

59:                                               ; preds = %53, %46, %39
  %60 = load i32, i32* %3, align 4
  %61 = sext i32 %60 to i64
  %62 = getelementptr inbounds [10000 x i32], [10000 x i32]* %6, i64 0, i64 %61
  store i32 0, i32* %62, align 4
  br label %68

63:                                               ; preds = %53
  br label %64

64:                                               ; preds = %63
  br label %65

65:                                               ; preds = %64
  %66 = load i32, i32* %4, align 4
  %67 = add nsw i32 %66, 1
  store i32 %67, i32* %4, align 4
  br label %25

68:                                               ; preds = %59, %35, %25
  %69 = load i32, i32* %3, align 4
  %70 = sext i32 %69 to i64
  %71 = getelementptr inbounds [10000 x i32], [10000 x i32]* %6, i64 0, i64 %70
  %72 = load i32, i32* %71, align 4
  %73 = icmp eq i32 %72, 1
  br i1 %73, label %74, label %90

74:                                               ; preds = %68
  %75 = load i32, i32* %3, align 4
  %76 = load i32, i32* %2, align 4
  %77 = sub nsw i32 %76, 2
  %78 = icmp eq i32 %75, %77
  br i1 %78, label %79, label %84

79:                                               ; preds = %74
  %80 = load i32, i32* %3, align 4
  %81 = load i32, i32* %3, align 4
  %82 = add nsw i32 %81, 2
  %83 = call i32 (i8*, ...) @printf(i8* getelementptr inbounds ([6 x i8], [6 x i8]* @.str.1, i64 0, i64 0), i32 %80, i32 %82)
  store i32 1, i32* %5, align 4
  br label %89

84:                                               ; preds = %74
  %85 = load i32, i32* %3, align 4
  %86 = load i32, i32* %3, align 4
  %87 = add nsw i32 %86, 2
  %88 = call i32 (i8*, ...) @printf(i8* getelementptr inbounds ([7 x i8], [7 x i8]* @.str.2, i64 0, i64 0), i32 %85, i32 %87)
  store i32 1, i32* %5, align 4
  br label %89

89:                                               ; preds = %84, %79
  br label %90

90:                                               ; preds = %89, %68
  br label %91

91:                                               ; preds = %90
  %92 = load i32, i32* %3, align 4
  %93 = add nsw i32 %92, 1
  store i32 %93, i32* %3, align 4
  br label %19

94:                                               ; preds = %19
  %95 = load i32, i32* %5, align 4
  %96 = icmp eq i32 %95, 0
  br i1 %96, label %97, label %99

97:                                               ; preds = %94
  %98 = call i32 (i8*, ...) @printf(i8* getelementptr inbounds ([6 x i8], [6 x i8]* @.str.3, i64 0, i64 0))
  br label %99

99:                                               ; preds = %97, %94
  ret i32 0
}

declare dso_local i32 @__isoc99_scanf(i8*, ...) #1

declare dso_local i32 @printf(i8*, ...) #1


!llvm.module.flags = !{!0}
!llvm.ident = !{!1}

!0 = !{i32 1, !"wchar_size", i32 4}
!1 = !{!"clang version 10.0.0-4ubuntu1 "}
